; Function Attrs: nounwind uwtable
define void @nk_buffer_init(ptr noundef %0, ptr noundef readonly captures(address_is_null) %1, i64 noundef %2) local_unnamed_addr #18 {
  %4 = icmp ne ptr %0, null
  %5 = icmp ne ptr %1, null
  %or.cond = and i1 %4, %5
  %6 = icmp ne i64 %2, 0
  %or.cond3 = and i1 %or.cond, %6
  br i1 %or.cond3, label %7, label %21

7:                                                ; preds = %3
  %8 = ptrtoint ptr %0 to i64
  %9 = and i64 %8, 3
  %.not.i.i = icmp eq i64 %9, 0
  br i1 %.not.i.i, label %.loopexit46.i.i.thread, label %.loopexit46.i.i

.loopexit46.i.i.thread:                           ; preds = %7
  tail call void @llvm.memset.p0.i64(ptr noundef nonnull align 4 dereferenceable(120) %0, i8 0, i64 120, i1 false), !tbaa !7
  br label %nk_zero.exit

.loopexit46.i.i:                                  ; preds = %7
  %10 = sub nuw nsw i64 4, %9
  tail call void @llvm.memset.p0.i64(ptr noundef nonnull align 1 dereferenceable(1) %0, i8 0, i64 %10, i1 false), !tbaa !9
  %scevgep.i.i = getelementptr i8, ptr %0, i64 %10
  tail call void @llvm.memset.p0.i64(ptr noundef nonnull align 4 dereferenceable(116) %scevgep.i.i, i8 0, i64 116, i1 false), !tbaa !7
  %scevgep53.i.i = getelementptr i8, ptr %scevgep.i.i, i64 116
  tail call void @llvm.memset.p0.i64(ptr align 1 %scevgep53.i.i, i8 0, i64 %9, i1 false), !tbaa !9
  br label %nk_zero.exit

nk_zero.exit:                                     ; preds = %.loopexit46.i.i.thread, %.loopexit46.i.i
  %11 = getelementptr inbounds nuw i8, ptr %0, i64 56
  store i32 1, ptr %11, align 8, !tbaa !36
  %12 = getelementptr inbounds nuw i8, ptr %1, i64 8
  %13 = load ptr, ptr %12, align 8, !tbaa !46
  %14 = load ptr, ptr %1, align 8
  %15 = tail call ptr %13(ptr %14, ptr noundef null, i64 noundef %2) #51
  %16 = getelementptr inbounds nuw i8, ptr %0, i64 64
  store ptr %15, ptr %16, align 8, !tbaa !41
  %17 = getelementptr inbounds nuw i8, ptr %0, i64 72
  store i64 %2, ptr %17, align 8, !tbaa !42
  %18 = getelementptr inbounds nuw i8, ptr %0, i64 112
  store i64 %2, ptr %18, align 8, !tbaa !43
  %19 = getelementptr inbounds nuw i8, ptr %0, i64 80
  store float 2.000000e+00, ptr %19, align 8, !tbaa !44
  %20 = getelementptr inbounds nuw i8, ptr %0, i64 32
  tail call void @llvm.memcpy.p0.p0.i64(ptr noundef nonnull align 8 dereferenceable(24) %20, ptr noundef nonnull align 8 dereferenceable(24) %1, i64 24, i1 false), !tbaa.struct !47
  br label %21

21:                                               ; preds = %3, %nk_zero.exit
  ret void
}